; Function Attrs: mustprogress uwtable
define noundef i64 @_ZN3nix12StringSource4readEPcm(ptr nocapture noundef nonnull align 8 dereferenceable(32) %0, ptr nocapture noundef writeonly %1, i64 noundef %2) unnamed_addr #2 align 2 personality ptr @__gxx_personality_v0 {
  %4 = alloca %"class.std::__cxx11::basic_string", align 8
  %5 = alloca %"class.std::allocator.0", align 1
  %6 = getelementptr inbounds i8, ptr %0, i64 24
  %7 = load i64, ptr %6, align 8
  %8 = getelementptr inbounds i8, ptr %0, i64 8
  %9 = load i64, ptr %8, align 8
  %10 = icmp eq i64 %7, %9
  br i1 %10, label %11, label %19

11:                                               ; preds = %3
  %12 = tail call ptr @__cxa_allocate_exception(i64 376) #34
  call void @_ZNSaIcEC1Ev(ptr noundef nonnull align 1 dereferenceable(1) %5) #34
  invoke void @_ZNSt7__cxx1112basic_stringIcSt11char_traitsIcESaIcEEC2IS3_EEPKcRKS3_(ptr noundef nonnull align 8 dereferenceable(32) %4, ptr noundef nonnull @.str.3, ptr noundef nonnull align 1 dereferenceable(1) %5)
          to label %13 unwind label %.thread

13:                                               ; preds = %11
  invoke void @_ZN3nix9EndOfFileCI2NS_9BaseErrorEIJEEERKNSt7__cxx1112basic_stringIcSt11char_traitsIcESaIcEEEDpRKT_(ptr noundef nonnull align 8 dereferenceable(376) %12, ptr noundef nonnull align 8 dereferenceable(32) %4)
          to label %14 unwind label %16

14:                                               ; preds = %13
  invoke void @__cxa_throw(ptr nonnull %12, ptr nonnull @_ZTIN3nix9EndOfFileE, ptr nonnull @_ZN3nix9EndOfFileD2Ev) #37
          to label %31 unwind label %16

.thread:                                          ; preds = %11
  %15 = landingpad { ptr, i32 }
          cleanup
  call void @_ZNSaIcED1Ev(ptr noundef nonnull align 1 dereferenceable(1) %5) #34
  br label %18

16:                                               ; preds = %13, %14
  %.07 = phi i1 [ false, %14 ], [ true, %13 ]
  %17 = landingpad { ptr, i32 }
          cleanup
  call void @_ZNSt7__cxx1112basic_stringIcSt11char_traitsIcESaIcEED2Ev(ptr noundef nonnull align 8 dereferenceable(32) %4) #34
  call void @_ZNSaIcED1Ev(ptr noundef nonnull align 1 dereferenceable(1) %5) #34
  br i1 %.07, label %18, label %30

18:                                               ; preds = %.thread, %16
  %.pn13 = phi { ptr, i32 } [ %15, %.thread ], [ %17, %16 ]
  call void @__cxa_free_exception(ptr %12) #34
  br label %30

19:                                               ; preds = %3
  %20 = icmp ult i64 %9, %7
  br i1 %20, label %21, label %_ZSt10__sv_checkmmPKc.exit.i

21:                                               ; preds = %19
  tail call void (ptr, ...) @_ZSt24__throw_out_of_range_fmtPKcz(ptr noundef nonnull @.str.13, ptr noundef nonnull @.str.12, i64 noundef %7, i64 noundef %9) #37
  unreachable

_ZSt10__sv_checkmmPKc.exit.i:                     ; preds = %19
  %22 = sub i64 %9, %7
  %.sroa.speculated.i = tail call i64 @llvm.umin.i64(i64 %22, i64 %2)
  %23 = icmp eq i64 %.sroa.speculated.i, 0
  br i1 %23, label %_ZNKSt17basic_string_viewIcSt11char_traitsIcEE4copyEPcmm.exit, label %24

24:                                               ; preds = %_ZSt10__sv_checkmmPKc.exit.i
  %25 = getelementptr inbounds i8, ptr %0, i64 16
  %26 = load ptr, ptr %25, align 8
  %27 = getelementptr inbounds i8, ptr %26, i64 %7
  tail call void @llvm.memcpy.p0.p0.i64(ptr align 1 %1, ptr align 1 %27, i64 %.sroa.speculated.i, i1 false)
  %.pre = load i64, ptr %6, align 8
  br label %_ZNKSt17basic_string_viewIcSt11char_traitsIcEE4copyEPcmm.exit

_ZNKSt17basic_string_viewIcSt11char_traitsIcEE4copyEPcmm.exit: ; preds = %_ZSt10__sv_checkmmPKc.exit.i, %24
  %28 = phi i64 [ %7, %_ZSt10__sv_checkmmPKc.exit.i ], [ %.pre, %24 ]
  %29 = add i64 %28, %.sroa.speculated.i
  store i64 %29, ptr %6, align 8
  ret i64 %.sroa.speculated.i

30:                                               ; preds = %16, %18
  %.pn12 = phi { ptr, i32 } [ %17, %16 ], [ %.pn13, %18 ]
  resume { ptr, i32 } %.pn12

31:                                               ; preds = %14
  unreachable
}